; ModuleID = '41/362.cpp'
source_filename = "41/362.cpp"
target datalayout = "e-m:e-p270:32:32-p271:32:32-p272:64:64-i64:64-f80:128-n8:16:32:64-S128"
target triple = "x86_64-pc-linux-gnu"

%"class.std::ios_base::Init" = type { i8 }
%"class.std::basic_ostream" = type { i32 (...)**, %"class.std::basic_ios" }
%"class.std::basic_ios" = type { %"class.std::ios_base", %"class.std::basic_ostream"*, i8, i8, %"class.std::basic_streambuf"*, %"class.std::ctype"*, %"class.std::num_put"*, %"class.std::num_get"* }
%"class.std::ios_base" = type { i32 (...)**, i64, i64, i32, i32, i32, %"struct.std::ios_base::_Callback_list"*, %"struct.std::ios_base::_Words", [8 x %"struct.std::ios_base::_Words"], i32, %"struct.std::ios_base::_Words"*, %"class.std::locale" }
%"struct.std::ios_base::_Callback_list" = type { %"struct.std::ios_base::_Callback_list"*, void (i32, %"class.std::ios_base"*, i32)*, i32, i32 }
%"struct.std::ios_base::_Words" = type { i8*, i64 }
%"class.std::locale" = type { %"class.std::locale::_Impl"* }
%"class.std::locale::_Impl" = type { i32, %"class.std::locale::facet"**, i64, %"class.std::locale::facet"**, i8** }
%"class.std::locale::facet" = type <{ i32 (...)**, i32, [4 x i8] }>
%"class.std::basic_streambuf" = type { i32 (...)**, i8*, i8*, i8*, i8*, i8*, i8*, %"class.std::locale" }
%"class.std::ctype" = type <{ %"class.std::locale::facet.base", [4 x i8], %struct.__locale_struct*, i8, [7 x i8], i32*, i32*, i16*, i8, [256 x i8], [256 x i8], i8, [6 x i8] }>
%"class.std::locale::facet.base" = type <{ i32 (...)**, i32 }>
%struct.__locale_struct = type { [13 x %struct.__locale_data*], i16*, i32*, i32*, [13 x i8*] }
%struct.__locale_data = type opaque
%"class.std::num_put" = type { %"class.std::locale::facet.base", [4 x i8] }
%"class.std::num_get" = type { %"class.std::locale::facet.base", [4 x i8] }

@_ZStL8__ioinit = internal global %"class.std::ios_base::Init" zeroinitializer, align 1
@__dso_handle = external hidden global i8
@_ZSt4cout = external dso_local global %"class.std::basic_ostream", align 8
@llvm.global_ctors = appending global [1 x { i32, void ()*, i8* }] [{ i32, void ()*, i8* } { i32 65535, void ()* @_GLOBAL__sub_I_362.cpp, i8* null }]

; Function Attrs: noinline uwtable
define internal void @__cxx_global_var_init() #0 section ".text.startup" {
  call void @_ZNSt8ios_base4InitC1Ev(%"class.std::ios_base::Init"* @_ZStL8__ioinit)
  %1 = call i32 @__cxa_atexit(void (i8*)* bitcast (void (%"class.std::ios_base::Init"*)* @_ZNSt8ios_base4InitD1Ev to void (i8*)*), i8* getelementptr inbounds (%"class.std::ios_base::Init", %"class.std::ios_base::Init"* @_ZStL8__ioinit, i32 0, i32 0), i8* @__dso_handle) #3
  ret void
}

declare dso_local void @_ZNSt8ios_base4InitC1Ev(%"class.std::ios_base::Init"*) unnamed_addr #1

; Function Attrs: nounwind
declare dso_local void @_ZNSt8ios_base4InitD1Ev(%"class.std::ios_base::Init"*) unnamed_addr #2

; Function Attrs: nounwind
declare dso_local i32 @__cxa_atexit(void (i8*)*, i8*, i8*) #3

; Function Attrs: noinline norecurse uwtable
define dso_local i32 @main() #4 {
  %1 = alloca i32, align 4
  %2 = alloca i32, align 4
  %3 = alloca i32, align 4
  %4 = alloca i32, align 4
  %5 = alloca i32, align 4
  %6 = alloca i32, align 4
  %7 = alloca [6 x i32], align 16
  store i32 0, i32* %1, align 4
  store i32 1, i32* %2, align 4
  br label %8

8:                                                ; preds = %160, %0
  %9 = load i32, i32* %2, align 4
  %10 = icmp slt i32 %9, 6
  br i1 %10, label %11, label %163

11:                                               ; preds = %8
  store i32 1, i32* %3, align 4
  br label %12

12:                                               ; preds = %156, %11
  %13 = load i32, i32* %3, align 4
  %14 = icmp slt i32 %13, 6
  br i1 %14, label %15, label %159

15:                                               ; preds = %12
  %16 = load i32, i32* %2, align 4
  %17 = load i32, i32* %3, align 4
  %18 = icmp ne i32 %16, %17
  br i1 %18, label %19, label %155

19:                                               ; preds = %15
  store i32 1, i32* %4, align 4
  br label %20

20:                                               ; preds = %151, %19
  %21 = load i32, i32* %4, align 4
  %22 = icmp slt i32 %21, 6
  br i1 %22, label %23, label %154

23:                                               ; preds = %20
  %24 = load i32, i32* %2, align 4
  %25 = load i32, i32* %4, align 4
  %26 = icmp ne i32 %24, %25
  br i1 %26, label %27, label %150

27:                                               ; preds = %23
  %28 = load i32, i32* %3, align 4
  %29 = load i32, i32* %4, align 4
  %30 = icmp ne i32 %28, %29
  br i1 %30, label %31, label %150

31:                                               ; preds = %27
  store i32 1, i32* %5, align 4
  br label %32

32:                                               ; preds = %146, %31
  %33 = load i32, i32* %5, align 4
  %34 = icmp slt i32 %33, 6
  br i1 %34, label %35, label %149

35:                                               ; preds = %32
  %36 = load i32, i32* %2, align 4
  %37 = load i32, i32* %5, align 4
  %38 = icmp ne i32 %36, %37
  br i1 %38, label %39, label %145

39:                                               ; preds = %35
  %40 = load i32, i32* %3, align 4
  %41 = load i32, i32* %5, align 4
  %42 = icmp ne i32 %40, %41
  br i1 %42, label %43, label %145

43:                                               ; preds = %39
  %44 = load i32, i32* %4, align 4
  %45 = load i32, i32* %5, align 4
  %46 = icmp ne i32 %44, %45
  br i1 %46, label %47, label %145

47:                                               ; preds = %43
  store i32 1, i32* %6, align 4
  br label %48

48:                                               ; preds = %141, %47
  %49 = load i32, i32* %6, align 4
  %50 = icmp slt i32 %49, 6
  br i1 %50, label %51, label %144

51:                                               ; preds = %48
  %52 = load i32, i32* %2, align 4
  %53 = load i32, i32* %6, align 4
  %54 = icmp ne i32 %52, %53
  br i1 %54, label %55, label %140

55:                                               ; preds = %51
  %56 = load i32, i32* %3, align 4
  %57 = load i32, i32* %6, align 4
  %58 = icmp ne i32 %56, %57
  br i1 %58, label %59, label %140

59:                                               ; preds = %55
  %60 = load i32, i32* %4, align 4
  %61 = load i32, i32* %6, align 4
  %62 = icmp ne i32 %60, %61
  br i1 %62, label %63, label %140

63:                                               ; preds = %59
  %64 = load i32, i32* %5, align 4
  %65 = load i32, i32* %6, align 4
  %66 = icmp ne i32 %64, %65
  br i1 %66, label %67, label %140

67:                                               ; preds = %63
  %68 = load i32, i32* %6, align 4
  %69 = icmp ne i32 %68, 2
  br i1 %69, label %70, label %139

70:                                               ; preds = %67
  %71 = load i32, i32* %6, align 4
  %72 = icmp ne i32 %71, 3
  br i1 %72, label %73, label %139

73:                                               ; preds = %70
  %74 = load i32, i32* %6, align 4
  %75 = icmp eq i32 %74, 1
  %76 = zext i1 %75 to i32
  %77 = load i32, i32* %2, align 4
  %78 = sext i32 %77 to i64
  %79 = getelementptr inbounds [6 x i32], [6 x i32]* %7, i64 0, i64 %78
  store i32 %76, i32* %79, align 4
  %80 = load i32, i32* %3, align 4
  %81 = icmp eq i32 %80, 2
  %82 = zext i1 %81 to i32
  %83 = load i32, i32* %3, align 4
  %84 = sext i32 %83 to i64
  %85 = getelementptr inbounds [6 x i32], [6 x i32]* %7, i64 0, i64 %84
  store i32 %82, i32* %85, align 4
  %86 = load i32, i32* %2, align 4
  %87 = icmp eq i32 %86, 5
  %88 = zext i1 %87 to i32
  %89 = load i32, i32* %4, align 4
  %90 = sext i32 %89 to i64
  %91 = getelementptr inbounds [6 x i32], [6 x i32]* %7, i64 0, i64 %90
  store i32 %88, i32* %91, align 4
  %92 = load i32, i32* %4, align 4
  %93 = icmp ne i32 %92, 1
  %94 = zext i1 %93 to i32
  %95 = load i32, i32* %5, align 4
  %96 = sext i32 %95 to i64
  %97 = getelementptr inbounds [6 x i32], [6 x i32]* %7, i64 0, i64 %96
  store i32 %94, i32* %97, align 4
  %98 = load i32, i32* %5, align 4
  %99 = icmp eq i32 %98, 1
  %100 = zext i1 %99 to i32
  %101 = load i32, i32* %6, align 4
  %102 = sext i32 %101 to i64
  %103 = getelementptr inbounds [6 x i32], [6 x i32]* %7, i64 0, i64 %102
  store i32 %100, i32* %103, align 4
  %104 = getelementptr inbounds [6 x i32], [6 x i32]* %7, i64 0, i64 1
  %105 = load i32, i32* %104, align 4
  %106 = icmp eq i32 %105, 1
  br i1 %106, label %107, label %138

107:                                              ; preds = %73
  %108 = getelementptr inbounds [6 x i32], [6 x i32]* %7, i64 0, i64 2
  %109 = load i32, i32* %108, align 8
  %110 = icmp eq i32 %109, 1
  br i1 %110, label %111, label %138

111:                                              ; preds = %107
  %112 = getelementptr inbounds [6 x i32], [6 x i32]* %7, i64 0, i64 3
  %113 = load i32, i32* %112, align 4
  %114 = icmp eq i32 %113, 0
  br i1 %114, label %115, label %138

115:                                              ; preds = %111
  %116 = getelementptr inbounds [6 x i32], [6 x i32]* %7, i64 0, i64 4
  %117 = load i32, i32* %116, align 16
  %118 = icmp eq i32 %117, 0
  br i1 %118, label %119, label %138

119:                                              ; preds = %115
  %120 = getelementptr inbounds [6 x i32], [6 x i32]* %7, i64 0, i64 5
  %121 = load i32, i32* %120, align 4
  %122 = icmp eq i32 %121, 0
  br i1 %122, label %123, label %138

123:                                              ; preds = %119
  %124 = load i32, i32* %2, align 4
  %125 = call dereferenceable(272) %"class.std::basic_ostream"* @_ZNSolsEi(%"class.std::basic_ostream"* @_ZSt4cout, i32 %124)
  %126 = call dereferenceable(272) %"class.std::basic_ostream"* @_ZStlsISt11char_traitsIcEERSt13basic_ostreamIcT_ES5_c(%"class.std::basic_ostream"* dereferenceable(272) %125, i8 signext 32)
  %127 = load i32, i32* %3, align 4
  %128 = call dereferenceable(272) %"class.std::basic_ostream"* @_ZNSolsEi(%"class.std::basic_ostream"* %126, i32 %127)
  %129 = call dereferenceable(272) %"class.std::basic_ostream"* @_ZStlsISt11char_traitsIcEERSt13basic_ostreamIcT_ES5_c(%"class.std::basic_ostream"* dereferenceable(272) %128, i8 signext 32)
  %130 = load i32, i32* %4, align 4
  %131 = call dereferenceable(272) %"class.std::basic_ostream"* @_ZNSolsEi(%"class.std::basic_ostream"* %129, i32 %130)
  %132 = call dereferenceable(272) %"class.std::basic_ostream"* @_ZStlsISt11char_traitsIcEERSt13basic_ostreamIcT_ES5_c(%"class.std::basic_ostream"* dereferenceable(272) %131, i8 signext 32)
  %133 = load i32, i32* %5, align 4
  %134 = call dereferenceable(272) %"class.std::basic_ostream"* @_ZNSolsEi(%"class.std::basic_ostream"* %132, i32 %133)
  %135 = call dereferenceable(272) %"class.std::basic_ostream"* @_ZStlsISt11char_traitsIcEERSt13basic_ostreamIcT_ES5_c(%"class.std::basic_ostream"* dereferenceable(272) %134, i8 signext 32)
  %136 = load i32, i32* %6, align 4
  %137 = call dereferenceable(272) %"class.std::basic_ostream"* @_ZNSolsEi(%"class.std::basic_ostream"* %135, i32 %136)
  br label %138

138:                                              ; preds = %123, %119, %115, %111, %107, %73
  br label %139

139:                                              ; preds = %138, %70, %67
  br label %140

140:                                              ; preds = %139, %63, %59, %55, %51
  br label %141

141:                                              ; preds = %140
  %142 = load i32, i32* %6, align 4
  %143 = add nsw i32 %142, 1
  store i32 %143, i32* %6, align 4
  br label %48

144:                                              ; preds = %48
  br label %145

145:                                              ; preds = %144, %43, %39, %35
  br label %146

146:                                              ; preds = %145
  %147 = load i32, i32* %5, align 4
  %148 = add nsw i32 %147, 1
  store i32 %148, i32* %5, align 4
  br label %32

149:                                              ; preds = %32
  br label %150

150:                                              ; preds = %149, %27, %23
  br label %151

151:                                              ; preds = %150
  %152 = load i32, i32* %4, align 4
  %153 = add nsw i32 %152, 1
  store i32 %153, i32* %4, align 4
  br label %20

154:                                              ; preds = %20
  br label %155

155:                                              ; preds = %154, %15
  br label %156

156:                                              ; preds = %155
  %157 = load i32, i32* %3, align 4
  %158 = add nsw i32 %157, 1
  store i32 %158, i32* %3, align 4
  br label %12

159:                                              ; preds = %12
  br label %160

160:                                              ; preds = %159
  %161 = load i32, i32* %2, align 4
  %162 = add nsw i32 %161, 1
  store i32 %162, i32* %2, align 4
  br label %8

163:                                              ; preds = %8
  ret i32 0
}

declare dso_local dereferenceable(272) %"class.std::basic_ostream"* @_ZStlsISt11char_traitsIcEERSt13basic_ostreamIcT_ES5_c(%"class.std::basic_ostream"* dereferenceable(272), i8 signext) #1

declare dso_local dereferenceable(272) %"class.std::basic_ostream"* @_ZNSolsEi(%"class.std::basic_ostream"*, i32) #1

; Function Attrs: noinline uwtable
define internal void @_GLOBAL__sub_I_362.cpp() #0 section ".text.startup" {
  call void @__cxx_global_var_init()
  ret void
}


!llvm.module.flags = !{!0}
!llvm.ident = !{!1}

!0 = !{i32 1, !"wchar_size", i32 4}
!1 = !{!"clang version 10.0.0-4ubuntu1 "}
